target datalayout = "e-m:e-p270:32:32-p271:32:32-p272:64:64-i64:64-i128:128-f80:128-n8:16:32:64-S128"
target triple = "x86_64-pc-linux-gnu"

; Function Attrs: nounwind uwtable
define hidden i32 @uv__tcp_nodelay(i32 noundef %0, i32 noundef %1) #0 {
  %3 = alloca i32, align 4
  %4 = alloca i32, align 4
  %5 = alloca i32, align 4
  store i32 %0, ptr %4, align 4
  store i32 %1, ptr %5, align 4
  %6 = load i32, ptr %4, align 4
  %7 = call i32 @setsockopt(i32 noundef %6, i32 noundef 6, i32 noundef 1, ptr noundef %5, i32 noundef 4) #8
  %8 = icmp ne i32 %7, 0
  br i1 %8, label %9, label %13

9:                                                ; preds = %2
  %10 = call ptr @__errno_location() #9
  %11 = load i32, ptr %10, align 4
  %12 = sub nsw i32 0, %11
  store i32 %12, ptr %3, align 4
  br label %14

13:                                               ; preds = %2
  store i32 0, ptr %3, align 4
  br label %14

14:                                               ; preds = %13, %9
  %15 = load i32, ptr %3, align 4
  ret i32 %15
}