; Function Attrs: nounwind uwtable
define hidden range(i32 -2147483647, -2147483648) i32 @uv__tcp_nodelay(i32 noundef %0, i32 noundef %1) local_unnamed_addr #0 {
  %3 = alloca i32, align 4
  store i32 %1, ptr %3, align 4
  %4 = call i32 @setsockopt(i32 noundef %0, i32 noundef 6, i32 noundef 1, ptr noundef nonnull %3, i32 noundef 4) #7
  %.not = icmp eq i32 %4, 0
  br i1 %.not, label %9, label %5

5:                                                ; preds = %2
  %6 = tail call ptr @__errno_location() #8
  %7 = load i32, ptr %6, align 4
  %8 = sub nsw i32 0, %7
  br label %9

9:                                                ; preds = %2, %5
  %.0 = phi i32 [ %8, %5 ], [ 0, %2 ]
  ret i32 %.0
}